target datalayout = "e-m:e-p270:32:32-p271:32:32-p272:64:64-i64:64-i128:128-f80:128-n8:16:32:64-S128"
target triple = "x86_64-pc-linux-gnu"

%struct.diff_options = type { ptr, ptr, i32, i32, ptr, i32, ptr, i64, i64, ptr, ptr, ptr, ptr, %struct.diff_flags, i32, i32, i32, i32, i32, i32, i32, i32, i32, i32, i32, i32, i32, i32, i32, i32, i32, i32, i32, i32, i32, i32, ptr, i32, ptr, i32, i32, ptr, i64, i64, i32, i32, i32, i32, ptr, i32, i32, ptr, i32, i32, ptr, ptr, i32, [3 x i8], %struct.pathspec, ptr, ptr, ptr, ptr, ptr, ptr, ptr, ptr, i32, ptr, i32, i32, ptr, ptr, i32 }
%struct.diff_flags = type { i32, i32, i32, i32, i32, i32, i32, i32, i32, i32, i32, i32, i32, i32, i32, i32, i32, i32, i32, i32, i32, i32, i32, i32, i32, i32, i32, i32, i32, i32, i32, i32, i32, i32, i32 }
%struct.pathspec = type { i32, i8, i32, i32, ptr }
%struct.emitted_diff_symbols = type { ptr, i32, i32 }
%struct.emitted_diff_symbol = type { ptr, i32, i32, i32, i32, i32, i32 }

@.str.353 = private unnamed_addr constant [27 x i8] c"size_t overflow: %lu * %lu\00", align 1

; Function Attrs: inlinehint nounwind uwtable
define internal i64 @st_mult(i64 noundef %0, i64 noundef %1) #2 {
  %3 = alloca i64, align 8
  %4 = alloca i64, align 8
  store i64 %0, ptr %3, align 8, !tbaa !11
  store i64 %1, ptr %4, align 8, !tbaa !11
  %5 = load i64, ptr %3, align 8, !tbaa !11
  %6 = icmp ne i64 %5, 0
  br i1 %6, label %7, label %15

7:                                                ; preds = %2
  %8 = load i64, ptr %4, align 8, !tbaa !11
  %9 = load i64, ptr %3, align 8, !tbaa !11
  %10 = udiv i64 -1, %9
  %11 = icmp ugt i64 %8, %10
  br i1 %11, label %12, label %15

12:                                               ; preds = %7
  %13 = load i64, ptr %3, align 8, !tbaa !11
  %14 = load i64, ptr %4, align 8, !tbaa !11
  call void (ptr, ...) @die(ptr noundef @.str.353, i64 noundef %13, i64 noundef %14) #12
  unreachable

15:                                               ; preds = %7, %2
  %16 = load i64, ptr %3, align 8, !tbaa !11
  %17 = load i64, ptr %4, align 8, !tbaa !11
  %18 = mul i64 %16, %17
  ret i64 %18
}

; Function Attrs: nounwind uwtable
define internal void @append_emitted_diff_symbol(ptr noundef %0, ptr noundef %1) #0 {
  %3 = alloca ptr, align 8
  %4 = alloca ptr, align 8
  %5 = alloca ptr, align 8
  store ptr %0, ptr %3, align 8, !tbaa !34
  store ptr %1, ptr %4, align 8, !tbaa !405
  call void @llvm.lifetime.start.p0(i64 8, ptr %5) #10
  br label %6

6:                                                ; preds = %2
  %7 = load ptr, ptr %3, align 8, !tbaa !34
  %8 = getelementptr inbounds nuw %struct.diff_options, ptr %7, i32 0, i32 68
  %9 = load ptr, ptr %8, align 8, !tbaa !68
  %10 = getelementptr inbounds nuw %struct.emitted_diff_symbols, ptr %9, i32 0, i32 1
  %11 = load i32, ptr %10, align 8, !tbaa !334
  %12 = add nsw i32 %11, 1
  %13 = load ptr, ptr %3, align 8, !tbaa !34
  %14 = getelementptr inbounds nuw %struct.diff_options, ptr %13, i32 0, i32 68
  %15 = load ptr, ptr %14, align 8, !tbaa !68
  %16 = getelementptr inbounds nuw %struct.emitted_diff_symbols, ptr %15, i32 0, i32 2
  %17 = load i32, ptr %16, align 4, !tbaa !406
  %18 = icmp sgt i32 %12, %17
  br i1 %18, label %19, label %77

19:                                               ; preds = %6
  %20 = load ptr, ptr %3, align 8, !tbaa !34
  %21 = getelementptr inbounds nuw %struct.diff_options, ptr %20, i32 0, i32 68
  %22 = load ptr, ptr %21, align 8, !tbaa !68
  %23 = getelementptr inbounds nuw %struct.emitted_diff_symbols, ptr %22, i32 0, i32 2
  %24 = load i32, ptr %23, align 4, !tbaa !406
  %25 = add nsw i32 %24, 16
  %26 = mul nsw i32 %25, 3
  %27 = sdiv i32 %26, 2
  %28 = load ptr, ptr %3, align 8, !tbaa !34
  %29 = getelementptr inbounds nuw %struct.diff_options, ptr %28, i32 0, i32 68
  %30 = load ptr, ptr %29, align 8, !tbaa !68
  %31 = getelementptr inbounds nuw %struct.emitted_diff_symbols, ptr %30, i32 0, i32 1
  %32 = load i32, ptr %31, align 8, !tbaa !334
  %33 = add nsw i32 %32, 1
  %34 = icmp slt i32 %27, %33
  br i1 %34, label %35, label %46

35:                                               ; preds = %19
  %36 = load ptr, ptr %3, align 8, !tbaa !34
  %37 = getelementptr inbounds nuw %struct.diff_options, ptr %36, i32 0, i32 68
  %38 = load ptr, ptr %37, align 8, !tbaa !68
  %39 = getelementptr inbounds nuw %struct.emitted_diff_symbols, ptr %38, i32 0, i32 1
  %40 = load i32, ptr %39, align 8, !tbaa !334
  %41 = add nsw i32 %40, 1
  %42 = load ptr, ptr %3, align 8, !tbaa !34
  %43 = getelementptr inbounds nuw %struct.diff_options, ptr %42, i32 0, i32 68
  %44 = load ptr, ptr %43, align 8, !tbaa !68
  %45 = getelementptr inbounds nuw %struct.emitted_diff_symbols, ptr %44, i32 0, i32 2
  store i32 %41, ptr %45, align 4, !tbaa !406
  br label %59

46:                                               ; preds = %19
  %47 = load ptr, ptr %3, align 8, !tbaa !34
  %48 = getelementptr inbounds nuw %struct.diff_options, ptr %47, i32 0, i32 68
  %49 = load ptr, ptr %48, align 8, !tbaa !68
  %50 = getelementptr inbounds nuw %struct.emitted_diff_symbols, ptr %49, i32 0, i32 2
  %51 = load i32, ptr %50, align 4, !tbaa !406
  %52 = add nsw i32 %51, 16
  %53 = mul nsw i32 %52, 3
  %54 = sdiv i32 %53, 2
  %55 = load ptr, ptr %3, align 8, !tbaa !34
  %56 = getelementptr inbounds nuw %struct.diff_options, ptr %55, i32 0, i32 68
  %57 = load ptr, ptr %56, align 8, !tbaa !68
  %58 = getelementptr inbounds nuw %struct.emitted_diff_symbols, ptr %57, i32 0, i32 2
  store i32 %54, ptr %58, align 4, !tbaa !406
  br label %59

59:                                               ; preds = %46, %35
  %60 = load ptr, ptr %3, align 8, !tbaa !34
  %61 = getelementptr inbounds nuw %struct.diff_options, ptr %60, i32 0, i32 68
  %62 = load ptr, ptr %61, align 8, !tbaa !68
  %63 = getelementptr inbounds nuw %struct.emitted_diff_symbols, ptr %62, i32 0, i32 0
  %64 = load ptr, ptr %63, align 8, !tbaa !337
  %65 = load ptr, ptr %3, align 8, !tbaa !34
  %66 = getelementptr inbounds nuw %struct.diff_options, ptr %65, i32 0, i32 68
  %67 = load ptr, ptr %66, align 8, !tbaa !68
  %68 = getelementptr inbounds nuw %struct.emitted_diff_symbols, ptr %67, i32 0, i32 2
  %69 = load i32, ptr %68, align 4, !tbaa !406
  %70 = sext i32 %69 to i64
  %71 = call i64 @st_mult(i64 noundef 32, i64 noundef %70)
  %72 = call ptr @xrealloc(ptr noundef %64, i64 noundef %71)
  %73 = load ptr, ptr %3, align 8, !tbaa !34
  %74 = getelementptr inbounds nuw %struct.diff_options, ptr %73, i32 0, i32 68
  %75 = load ptr, ptr %74, align 8, !tbaa !68
  %76 = getelementptr inbounds nuw %struct.emitted_diff_symbols, ptr %75, i32 0, i32 0
  store ptr %72, ptr %76, align 8, !tbaa !337
  br label %77

77:                                               ; preds = %59, %6
  br label %78

78:                                               ; preds = %77
  br label %79

79:                                               ; preds = %78
  %80 = load ptr, ptr %3, align 8, !tbaa !34
  %81 = getelementptr inbounds nuw %struct.diff_options, ptr %80, i32 0, i32 68
  %82 = load ptr, ptr %81, align 8, !tbaa !68
  %83 = getelementptr inbounds nuw %struct.emitted_diff_symbols, ptr %82, i32 0, i32 0
  %84 = load ptr, ptr %83, align 8, !tbaa !337
  %85 = load ptr, ptr %3, align 8, !tbaa !34
  %86 = getelementptr inbounds nuw %struct.diff_options, ptr %85, i32 0, i32 68
  %87 = load ptr, ptr %86, align 8, !tbaa !68
  %88 = getelementptr inbounds nuw %struct.emitted_diff_symbols, ptr %87, i32 0, i32 1
  %89 = load i32, ptr %88, align 8, !tbaa !334
  %90 = add nsw i32 %89, 1
  store i32 %90, ptr %88, align 8, !tbaa !334
  %91 = sext i32 %89 to i64
  %92 = getelementptr inbounds %struct.emitted_diff_symbol, ptr %84, i64 %91
  store ptr %92, ptr %5, align 8, !tbaa !405
  %93 = load ptr, ptr %5, align 8, !tbaa !405
  %94 = load ptr, ptr %4, align 8, !tbaa !405
  call void @llvm.memcpy.p0.p0.i64(ptr align 8 %93, ptr align 8 %94, i64 32, i1 false)
  %95 = load ptr, ptr %4, align 8, !tbaa !405
  %96 = getelementptr inbounds nuw %struct.emitted_diff_symbol, ptr %95, i32 0, i32 0
  %97 = load ptr, ptr %96, align 8, !tbaa !60
  %98 = icmp ne ptr %97, null
  br i1 %98, label %99, label %108

99:                                               ; preds = %79
  %100 = load ptr, ptr %4, align 8, !tbaa !405
  %101 = getelementptr inbounds nuw %struct.emitted_diff_symbol, ptr %100, i32 0, i32 0
  %102 = load ptr, ptr %101, align 8, !tbaa !60
  %103 = load ptr, ptr %4, align 8, !tbaa !405
  %104 = getelementptr inbounds nuw %struct.emitted_diff_symbol, ptr %103, i32 0, i32 1
  %105 = load i32, ptr %104, align 8, !tbaa !62
  %106 = sext i32 %105 to i64
  %107 = call ptr @xmemdupz(ptr noundef %102, i64 noundef %106)
  br label %109

108:                                              ; preds = %79
  br label %109

109:                                              ; preds = %108, %99
  %110 = phi ptr [ %107, %99 ], [ null, %108 ]
  %111 = load ptr, ptr %5, align 8, !tbaa !405
  %112 = getelementptr inbounds nuw %struct.emitted_diff_symbol, ptr %111, i32 0, i32 0
  store ptr %110, ptr %112, align 8, !tbaa !60
  call void @llvm.lifetime.end.p0(i64 8, ptr %5) #10
  ret void
}

; Function Attrs: nounwind uwtable
define internal void @emit_diff_symbol(ptr noundef %0, i32 noundef %1, ptr noundef %2, i32 noundef %3, i32 noundef %4) #0 {
  %6 = alloca ptr, align 8
  %7 = alloca i32, align 4
  %8 = alloca ptr, align 8
  %9 = alloca i32, align 4
  %10 = alloca i32, align 4
  %11 = alloca %struct.emitted_diff_symbol, align 8
  store ptr %0, ptr %6, align 8, !tbaa !34
  store i32 %1, ptr %7, align 4, !tbaa !16
  store ptr %2, ptr %8, align 8, !tbaa !9
  store i32 %3, ptr %9, align 4, !tbaa !16
  store i32 %4, ptr %10, align 4, !tbaa !16
  call void @llvm.lifetime.start.p0(i64 32, ptr %11) #10
  %12 = getelementptr inbounds nuw %struct.emitted_diff_symbol, ptr %11, i32 0, i32 0
  %13 = load ptr, ptr %8, align 8, !tbaa !9
  store ptr %13, ptr %12, align 8, !tbaa !60
  %14 = getelementptr inbounds nuw %struct.emitted_diff_symbol, ptr %11, i32 0, i32 1
  %15 = load i32, ptr %9, align 4, !tbaa !16
  store i32 %15, ptr %14, align 8, !tbaa !62
  %16 = getelementptr inbounds nuw %struct.emitted_diff_symbol, ptr %11, i32 0, i32 2
  %17 = load i32, ptr %10, align 4, !tbaa !16
  store i32 %17, ptr %16, align 4, !tbaa !63
  %18 = getelementptr inbounds nuw %struct.emitted_diff_symbol, ptr %11, i32 0, i32 3
  store i32 0, ptr %18, align 8, !tbaa !64
  %19 = getelementptr inbounds nuw %struct.emitted_diff_symbol, ptr %11, i32 0, i32 4
  store i32 0, ptr %19, align 4, !tbaa !65
  %20 = getelementptr inbounds nuw %struct.emitted_diff_symbol, ptr %11, i32 0, i32 5
  store i32 0, ptr %20, align 8, !tbaa !66
  %21 = getelementptr inbounds nuw %struct.emitted_diff_symbol, ptr %11, i32 0, i32 6
  %22 = load i32, ptr %7, align 4, !tbaa !16
  store i32 %22, ptr %21, align 4, !tbaa !67
  %23 = load ptr, ptr %6, align 8, !tbaa !34
  %24 = getelementptr inbounds nuw %struct.diff_options, ptr %23, i32 0, i32 68
  %25 = load ptr, ptr %24, align 8, !tbaa !68
  %26 = icmp ne ptr %25, null
  br i1 %26, label %27, label %29

27:                                               ; preds = %5
  %28 = load ptr, ptr %6, align 8, !tbaa !34
  call void @append_emitted_diff_symbol(ptr noundef %28, ptr noundef %11)
  br label %31

29:                                               ; preds = %5
  %30 = load ptr, ptr %6, align 8, !tbaa !34
  call void @emit_diff_symbol_from_struct(ptr noundef %30, ptr noundef %11)
  br label %31

31:                                               ; preds = %29, %27
  call void @llvm.lifetime.end.p0(i64 32, ptr %11) #10
  ret void
}