; Function Attrs: nounwind uwtable
define internal fastcc void @emit_diff_symbol(ptr noundef %0, i32 noundef %1, ptr noundef %2, i32 noundef %3, i32 noundef range(i32 4096, 1) %4) unnamed_addr #0 {
  %6 = alloca %struct.emitted_diff_symbol, align 8
  call void @llvm.lifetime.start.p0(i64 32, ptr nonnull %6) #32
  store ptr %2, ptr %6, align 8, !tbaa !47
  %7 = getelementptr inbounds nuw i8, ptr %6, i64 8
  store i32 %3, ptr %7, align 8, !tbaa !49
  %8 = getelementptr inbounds nuw i8, ptr %6, i64 12
  store i32 %4, ptr %8, align 4, !tbaa !50
  %9 = getelementptr inbounds nuw i8, ptr %6, i64 16
  store i32 0, ptr %9, align 8, !tbaa !51
  %10 = getelementptr inbounds nuw i8, ptr %6, i64 20
  store i32 0, ptr %10, align 4, !tbaa !52
  %11 = getelementptr inbounds nuw i8, ptr %6, i64 24
  store i32 0, ptr %11, align 8, !tbaa !53
  %12 = getelementptr inbounds nuw i8, ptr %6, i64 28
  store i32 %1, ptr %12, align 4, !tbaa !54
  %13 = getelementptr inbounds nuw i8, ptr %0, i64 552
  %14 = load ptr, ptr %13, align 8, !tbaa !55
  %.not = icmp eq ptr %14, null
  br i1 %.not, label %43, label %15

15:                                               ; preds = %5
  %16 = getelementptr inbounds nuw i8, ptr %14, i64 8
  %17 = load i32, ptr %16, align 8, !tbaa !56
  %18 = getelementptr inbounds nuw i8, ptr %14, i64 12
  %19 = load i32, ptr %18, align 4, !tbaa !59
  %.not.i = icmp slt i32 %17, %19
  br i1 %.not.i, label %._crit_edge.i, label %20

._crit_edge.i:                                    ; preds = %15
  %.pre.i = load ptr, ptr %14, align 8, !tbaa !60
  br label %31

20:                                               ; preds = %15
  %21 = add nsw i32 %17, 1
  %22 = mul i32 %19, 3
  %23 = add i32 %22, 48
  %24 = sdiv i32 %23, 2
  %.not22.i = icmp sgt i32 %24, %17
  %..i = select i1 %.not22.i, i32 %24, i32 %21
  store i32 %..i, ptr %18, align 4, !tbaa !59
  %25 = sext i32 %..i to i64
  %mul.ov.i.i = icmp slt i32 %..i, 0
  br i1 %mul.ov.i.i, label %26, label %st_mult.exit.i

26:                                               ; preds = %20
  tail call void (ptr, ...) @die(ptr noundef nonnull @.str.353, i64 noundef 32, i64 noundef %25) #34
  unreachable

st_mult.exit.i:                                   ; preds = %20
  %27 = load ptr, ptr %14, align 8, !tbaa !60
  %28 = shl nuw nsw i64 %25, 5
  %29 = tail call ptr @xrealloc(ptr noundef %27, i64 noundef %28) #32
  %30 = load ptr, ptr %13, align 8, !tbaa !55
  store ptr %29, ptr %30, align 8, !tbaa !60
  %.phi.trans.insert.i = getelementptr inbounds nuw i8, ptr %30, i64 8
  %.pre24.i = load i32, ptr %.phi.trans.insert.i, align 8, !tbaa !56
  br label %31

31:                                               ; preds = %st_mult.exit.i, %._crit_edge.i
  %32 = phi i32 [ %.pre24.i, %st_mult.exit.i ], [ %17, %._crit_edge.i ]
  %33 = phi ptr [ %29, %st_mult.exit.i ], [ %.pre.i, %._crit_edge.i ]
  %34 = phi ptr [ %30, %st_mult.exit.i ], [ %14, %._crit_edge.i ]
  %35 = getelementptr inbounds nuw i8, ptr %34, i64 8
  %36 = add nsw i32 %32, 1
  store i32 %36, ptr %35, align 8, !tbaa !56
  %37 = sext i32 %32 to i64
  %38 = getelementptr inbounds %struct.emitted_diff_symbol, ptr %33, i64 %37
  call void @llvm.memcpy.p0.p0.i64(ptr noundef nonnull align 8 dereferenceable(32) %38, ptr noundef nonnull readonly align 8 dereferenceable(32) %6, i64 32, i1 false)
  %.not23.i = icmp eq ptr %2, null
  br i1 %.not23.i, label %append_emitted_diff_symbol.exit, label %39

39:                                               ; preds = %31
  %40 = sext i32 %3 to i64
  %41 = tail call ptr @xmemdupz(ptr noundef nonnull %2, i64 noundef %40) #32
  br label %append_emitted_diff_symbol.exit

append_emitted_diff_symbol.exit:                  ; preds = %31, %39
  %42 = phi ptr [ %41, %39 ], [ null, %31 ]
  store ptr %42, ptr %38, align 8, !tbaa !47
  br label %44

43:                                               ; preds = %5
  call fastcc void @emit_diff_symbol_from_struct(ptr noundef nonnull %0, ptr noundef nonnull %6)
  br label %44

44:                                               ; preds = %43, %append_emitted_diff_symbol.exit
  call void @llvm.lifetime.end.p0(i64 32, ptr nonnull %6) #32
  ret void
}